SF:D:\a\rust-calculator\rust-calculator\src\calculator.rs
FN:13,_RNvMs_NtCsbXWoHD4LUM0_13calculator_rs10calculatorNtB4_10Calculator3new
FN:27,_RINvMs_NtCsbXWoHD4LUM0_13calculator_rs10calculatorNtB5_10Calculator9calculateNtNtNtB7_10operations10arithmetic3AddEB7_
FN:27,_RINvMs_NtCsbXWoHD4LUM0_13calculator_rs10calculatorNtB5_10Calculator9calculateNtNtNtB7_10operations10arithmetic6DivideEB7_
FN:27,_RINvMs_NtCsbXWoHD4LUM0_13calculator_rs10calculatorNtB5_10Calculator9calculateNtNtNtB7_10operations10arithmetic8MultiplyEB7_
FN:27,_RINvMs_NtCsbXWoHD4LUM0_13calculator_rs10calculatorNtB5_10Calculator9calculateNtNtNtB7_10operations10arithmetic8SubtractEB7_
FN:27,_RINvMs_NtCsbXWoHD4LUM0_13calculator_rs10calculatorNtB5_10Calculator9calculateNtNtNtB7_10operations8advanced5PowerEB7_
FN:7,_RNvXNtCsbXWoHD4LUM0_13calculator_rs10calculatorNtB2_10CalculatorNtNtCscuoSGdwqc8b_4core7default7Default7default
FN:7,_RNvXNtCsgI3ltRjLmgv_13calculator_rs10calculatorNtB2_10CalculatorNtNtCscuoSGdwqc8b_4core7default7Default7default
FN:13,_RNvMs_NtCsgI3ltRjLmgv_13calculator_rs10calculatorNtB4_10Calculator3new
FN:27,_RINvMs_NtCsgI3ltRjLmgv_13calculator_rs10calculatorNtB5_10Calculator9calculatepEB7_
FN:7,_RNvXNtCsb6I7K8kmwIw_13calculator_rs10calculatorNtB2_10CalculatorNtNtCscuoSGdwqc8b_4core7default7Default7default
FN:13,_RNvMs_NtCsb6I7K8kmwIw_13calculator_rs10calculatorNtB4_10Calculator3new
FN:27,_RINvMs_NtCsb6I7K8kmwIw_13calculator_rs10calculatorNtB5_10Calculator9calculatepEB7_
FN:27,_RINvMs_NtCsgjQSL0KFMYq_13calculator_rs10calculatorNtB5_10Calculator9calculateNtNtNtB7_10operations10arithmetic3AddECs5AK0kyf2Mo3_9e2e_tests
FN:7,_RNvXNtCsgjQSL0KFMYq_13calculator_rs10calculatorNtB2_10CalculatorNtNtCscuoSGdwqc8b_4core7default7Default7default
FN:13,_RNvMs_NtCsgjQSL0KFMYq_13calculator_rs10calculatorNtB4_10Calculator3new
FN:27,_RINvMs_NtCsgjQSL0KFMYq_13calculator_rs10calculatorNtB5_10Calculator9calculatepEB7_
FN:27,_RINvMs_NtCsgjQSL0KFMYq_13calculator_rs10calculatorNtB5_10Calculator9calculateNtNtNtB7_10operations10arithmetic3AddECs7oz4UlvAjMq_17integration_tests
FN:27,_RINvMs_NtCsgjQSL0KFMYq_13calculator_rs10calculatorNtB5_10Calculator9calculateNtNtNtB7_10operations10arithmetic6DivideECs7oz4UlvAjMq_17integration_tests
FN:27,_RINvMs_NtCsgjQSL0KFMYq_13calculator_rs10calculatorNtB5_10Calculator9calculateNtNtNtB7_10operations10arithmetic8MultiplyECs7oz4UlvAjMq_17integration_tests
FN:27,_RINvMs_NtCsgjQSL0KFMYq_13calculator_rs10calculatorNtB5_10Calculator9calculateNtNtNtB7_10operations10arithmetic8SubtractECs7oz4UlvAjMq_17integration_tests
FN:27,_RINvMs_NtCsgjQSL0KFMYq_13calculator_rs10calculatorNtB5_10Calculator9calculateNtNtNtB7_10operations8advanced5PowerECs7oz4UlvAjMq_17integration_tests
FNDA:0,_RNvMs_NtCsbXWoHD4LUM0_13calculator_rs10calculatorNtB4_10Calculator3new
FNDA:0,_RINvMs_NtCsbXWoHD4LUM0_13calculator_rs10calculatorNtB5_10Calculator9calculateNtNtNtB7_10operations10arithmetic3AddEB7_
FNDA:0,_RINvMs_NtCsbXWoHD4LUM0_13calculator_rs10calculatorNtB5_10Calculator9calculateNtNtNtB7_10operations10arithmetic6DivideEB7_
FNDA:0,_RINvMs_NtCsbXWoHD4LUM0_13calculator_rs10calculatorNtB5_10Calculator9calculateNtNtNtB7_10operations10arithmetic8MultiplyEB7_
FNDA:0,_RINvMs_NtCsbXWoHD4LUM0_13calculator_rs10calculatorNtB5_10Calculator9calculateNtNtNtB7_10operations10arithmetic8SubtractEB7_
FNDA:0,_RINvMs_NtCsbXWoHD4LUM0_13calculator_rs10calculatorNtB5_10Calculator9calculateNtNtNtB7_10operations8advanced5PowerEB7_
FNDA:0,_RNvXNtCsbXWoHD4LUM0_13calculator_rs10calculatorNtB2_10CalculatorNtNtCscuoSGdwqc8b_4core7default7Default7default
FNDA:0,_RNvXNtCsgI3ltRjLmgv_13calculator_rs10calculatorNtB2_10CalculatorNtNtCscuoSGdwqc8b_4core7default7Default7default
FNDA:0,_RNvMs_NtCsgI3ltRjLmgv_13calculator_rs10calculatorNtB4_10Calculator3new
FNDA:0,_RINvMs_NtCsgI3ltRjLmgv_13calculator_rs10calculatorNtB5_10Calculator9calculatepEB7_
FNDA:0,_RNvXNtCsb6I7K8kmwIw_13calculator_rs10calculatorNtB2_10CalculatorNtNtCscuoSGdwqc8b_4core7default7Default7default
FNDA:0,_RNvMs_NtCsb6I7K8kmwIw_13calculator_rs10calculatorNtB4_10Calculator3new
FNDA:0,_RINvMs_NtCsb6I7K8kmwIw_13calculator_rs10calculatorNtB5_10Calculator9calculatepEB7_
FNDA:0,_RINvMs_NtCsgjQSL0KFMYq_13calculator_rs10calculatorNtB5_10Calculator9calculateNtNtNtB7_10operations10arithmetic3AddECs5AK0kyf2Mo3_9e2e_tests
FNDA:0,_RNvXNtCsgjQSL0KFMYq_13calculator_rs10calculatorNtB2_10CalculatorNtNtCscuoSGdwqc8b_4core7default7Default7default
FNDA:2,_RNvMs_NtCsgjQSL0KFMYq_13calculator_rs10calculatorNtB4_10Calculator3new
FNDA:0,_RINvMs_NtCsgjQSL0KFMYq_13calculator_rs10calculatorNtB5_10Calculator9calculatepEB7_
FNDA:3,_RINvMs_NtCsgjQSL0KFMYq_13calculator_rs10calculatorNtB5_10Calculator9calculateNtNtNtB7_10operations10arithmetic3AddECs7oz4UlvAjMq_17integration_tests
FNDA:2,_RINvMs_NtCsgjQSL0KFMYq_13calculator_rs10calculatorNtB5_10Calculator9calculateNtNtNtB7_10operations10arithmetic6DivideECs7oz4UlvAjMq_17integration_tests
FNDA:3,_RINvMs_NtCsgjQSL0KFMYq_13calculator_rs10calculatorNtB5_10Calculator9calculateNtNtNtB7_10operations10arithmetic8MultiplyECs7oz4UlvAjMq_17integration_tests
FNDA:1,_RINvMs_NtCsgjQSL0KFMYq_13calculator_rs10calculatorNtB5_10Calculator9calculateNtNtNtB7_10operations10arithmetic8SubtractECs7oz4UlvAjMq_17integration_tests
FNDA:3,_RINvMs_NtCsgjQSL0KFMYq_13calculator_rs10calculatorNtB5_10Calculator9calculateNtNtNtB7_10operations8advanced5PowerECs7oz4UlvAjMq_17integration_tests
FNF:3
FNH:2
DA:7,0
DA:8,0
DA:9,0
DA:13,2
DA:14,2
DA:15,2
DA:27,12
DA:28,12
DA:29,12
BRF:0
BRH:0
LF:9
LH:6
end_of_record
SF:D:\a\rust-calculator\rust-calculator\src\main.rs
FN:9,_RNvCsbXWoHD4LUM0_13calculator_rs4main
FN:9,_RNvCsgI3ltRjLmgv_13calculator_rs4main
FNDA:0,_RNvCsbXWoHD4LUM0_13calculator_rs4main
FNDA:0,_RNvCsgI3ltRjLmgv_13calculator_rs4main
FNF:1
FNH:0
DA:9,0
DA:10,0
DA:11,0
DA:12,0
DA:13,0
DA:14,0
DA:15,0
DA:16,0
DA:17,0
DA:18,0
DA:20,0
DA:21,0
DA:25,0
DA:26,0
DA:27,0
DA:28,0
DA:30,0
DA:31,0
DA:35,0
DA:36,0
DA:37,0
DA:38,0
DA:40,0
DA:41,0
DA:45,0
DA:46,0
DA:47,0
DA:48,0
DA:49,0
DA:50,0
DA:52,0
DA:53,0
DA:57,0
DA:58,0
DA:59,0
DA:61,0
BRF:0
BRH:0
LF:36
LH:0
end_of_record
SF:D:\a\rust-calculator\rust-calculator\src\operations\advanced.rs
FN:24,_RNvXNtNtCsbXWoHD4LUM0_13calculator_rs10operations8advancedNtB2_5PowerNtB4_9Operation7execute
FN:24,_RNvXNtNtCsgI3ltRjLmgv_13calculator_rs10operations8advancedNtB2_5PowerNtB4_9Operation7execute
FN:34,_RNvNtNtNtCsgI3ltRjLmgv_13calculator_rs10operations8advanced5testss_10test_power
FN:24,_RNvXNtNtCsb6I7K8kmwIw_13calculator_rs10operations8advancedNtB2_5PowerNtB4_9Operation7execute
FN:34,_RNvNtNtNtCsb6I7K8kmwIw_13calculator_rs10operations8advanced5testss_10test_power
FN:24,_RNvXNtNtCsgjQSL0KFMYq_13calculator_rs10operations8advancedNtB2_5PowerNtB4_9Operation7execute
FNDA:0,_RNvXNtNtCsbXWoHD4LUM0_13calculator_rs10operations8advancedNtB2_5PowerNtB4_9Operation7execute
FNDA:4,_RNvXNtNtCsgI3ltRjLmgv_13calculator_rs10operations8advancedNtB2_5PowerNtB4_9Operation7execute
FNDA:1,_RNvNtNtNtCsgI3ltRjLmgv_13calculator_rs10operations8advanced5testss_10test_power
FNDA:4,_RNvXNtNtCsb6I7K8kmwIw_13calculator_rs10operations8advancedNtB2_5PowerNtB4_9Operation7execute
FNDA:1,_RNvNtNtNtCsb6I7K8kmwIw_13calculator_rs10operations8advanced5testss_10test_power
FNDA:3,_RNvXNtNtCsgjQSL0KFMYq_13calculator_rs10operations8advancedNtB2_5PowerNtB4_9Operation7execute
FNF:2
FNH:2
DA:24,11
DA:25,11
DA:26,11
DA:34,2
DA:35,2
DA:36,2
DA:37,2
DA:38,2
DA:39,2
DA:40,2
BRF:0
BRH:0
LF:10
LH:10
end_of_record
SF:D:\a\rust-calculator\rust-calculator\src\operations\arithmetic.rs
FN:23,_RNvXNtNtCsbXWoHD4LUM0_13calculator_rs10operations10arithmeticNtB2_3AddNtB4_9Operation7execute
FN:48,_RNvXs_NtNtCsbXWoHD4LUM0_13calculator_rs10operations10arithmeticNtB4_8SubtractNtB6_9Operation7execute
FN:73,_RNvXs0_NtNtCsbXWoHD4LUM0_13calculator_rs10operations10arithmeticNtB5_8MultiplyNtB7_9Operation7execute
FN:100,_RNvXs1_NtNtCsbXWoHD4LUM0_13calculator_rs10operations10arithmeticNtB5_6DivideNtB7_9Operation7execute
FN:23,_RNvXNtNtCsgI3ltRjLmgv_13calculator_rs10operations10arithmeticNtB2_3AddNtB4_9Operation7execute
FN:48,_RNvXs_NtNtCsgI3ltRjLmgv_13calculator_rs10operations10arithmeticNtB4_8SubtractNtB6_9Operation7execute
FN:73,_RNvXs0_NtNtCsgI3ltRjLmgv_13calculator_rs10operations10arithmeticNtB5_8MultiplyNtB7_9Operation7execute
FN:100,_RNvXs1_NtNtCsgI3ltRjLmgv_13calculator_rs10operations10arithmeticNtB5_6DivideNtB7_9Operation7execute
FN:114,_RNvNtNtNtCsgI3ltRjLmgv_13calculator_rs10operations10arithmetic5testss_8test_add
FN:122,_RNvNtNtNtCsgI3ltRjLmgv_13calculator_rs10operations10arithmetic5testss_13test_subtract
FN:130,_RNvNtNtNtCsgI3ltRjLmgv_13calculator_rs10operations10arithmetic5testss_13test_multiply
FN:138,_RNvNtNtNtCsgI3ltRjLmgv_13calculator_rs10operations10arithmetic5testss_11test_divide
FN:23,_RNvXNtNtCsb6I7K8kmwIw_13calculator_rs10operations10arithmeticNtB2_3AddNtB4_9Operation7execute
FN:48,_RNvXs_NtNtCsb6I7K8kmwIw_13calculator_rs10operations10arithmeticNtB4_8SubtractNtB6_9Operation7execute
FN:73,_RNvXs0_NtNtCsb6I7K8kmwIw_13calculator_rs10operations10arithmeticNtB5_8MultiplyNtB7_9Operation7execute
FN:100,_RNvXs1_NtNtCsb6I7K8kmwIw_13calculator_rs10operations10arithmeticNtB5_6DivideNtB7_9Operation7execute
FN:114,_RNvNtNtNtCsb6I7K8kmwIw_13calculator_rs10operations10arithmetic5testss_8test_add
FN:122,_RNvNtNtNtCsb6I7K8kmwIw_13calculator_rs10operations10arithmetic5testss_13test_subtract
FN:130,_RNvNtNtNtCsb6I7K8kmwIw_13calculator_rs10operations10arithmetic5testss_13test_multiply
FN:138,_RNvNtNtNtCsb6I7K8kmwIw_13calculator_rs10operations10arithmetic5testss_11test_divide
FN:23,_RNvXNtNtCsgjQSL0KFMYq_13calculator_rs10operations10arithmeticNtB2_3AddNtB4_9Operation7execute
FN:48,_RNvXs_NtNtCsgjQSL0KFMYq_13calculator_rs10operations10arithmeticNtB4_8SubtractNtB6_9Operation7execute
FN:73,_RNvXs0_NtNtCsgjQSL0KFMYq_13calculator_rs10operations10arithmeticNtB5_8MultiplyNtB7_9Operation7execute
FN:100,_RNvXs1_NtNtCsgjQSL0KFMYq_13calculator_rs10operations10arithmeticNtB5_6DivideNtB7_9Operation7execute
FNDA:0,_RNvXNtNtCsbXWoHD4LUM0_13calculator_rs10operations10arithmeticNtB2_3AddNtB4_9Operation7execute
FNDA:0,_RNvXs_NtNtCsbXWoHD4LUM0_13calculator_rs10operations10arithmeticNtB4_8SubtractNtB6_9Operation7execute
FNDA:0,_RNvXs0_NtNtCsbXWoHD4LUM0_13calculator_rs10operations10arithmeticNtB5_8MultiplyNtB7_9Operation7execute
FNDA:0,_RNvXs1_NtNtCsbXWoHD4LUM0_13calculator_rs10operations10arithmeticNtB5_6DivideNtB7_9Operation7execute
FNDA:3,_RNvXNtNtCsgI3ltRjLmgv_13calculator_rs10operations10arithmeticNtB2_3AddNtB4_9Operation7execute
FNDA:3,_RNvXs_NtNtCsgI3ltRjLmgv_13calculator_rs10operations10arithmeticNtB4_8SubtractNtB6_9Operation7execute
FNDA:3,_RNvXs0_NtNtCsgI3ltRjLmgv_13calculator_rs10operations10arithmeticNtB5_8MultiplyNtB7_9Operation7execute
FNDA:4,_RNvXs1_NtNtCsgI3ltRjLmgv_13calculator_rs10operations10arithmeticNtB5_6DivideNtB7_9Operation7execute
FNDA:1,_RNvNtNtNtCsgI3ltRjLmgv_13calculator_rs10operations10arithmetic5testss_8test_add
FNDA:1,_RNvNtNtNtCsgI3ltRjLmgv_13calculator_rs10operations10arithmetic5testss_13test_subtract
FNDA:1,_RNvNtNtNtCsgI3ltRjLmgv_13calculator_rs10operations10arithmetic5testss_13test_multiply
FNDA:1,_RNvNtNtNtCsgI3ltRjLmgv_13calculator_rs10operations10arithmetic5testss_11test_divide
FNDA:3,_RNvXNtNtCsb6I7K8kmwIw_13calculator_rs10operations10arithmeticNtB2_3AddNtB4_9Operation7execute
FNDA:3,_RNvXs_NtNtCsb6I7K8kmwIw_13calculator_rs10operations10arithmeticNtB4_8SubtractNtB6_9Operation7execute
FNDA:3,_RNvXs0_NtNtCsb6I7K8kmwIw_13calculator_rs10operations10arithmeticNtB5_8MultiplyNtB7_9Operation7execute
FNDA:4,_RNvXs1_NtNtCsb6I7K8kmwIw_13calculator_rs10operations10arithmeticNtB5_6DivideNtB7_9Operation7execute
FNDA:1,_RNvNtNtNtCsb6I7K8kmwIw_13calculator_rs10operations10arithmetic5testss_8test_add
FNDA:1,_RNvNtNtNtCsb6I7K8kmwIw_13calculator_rs10operations10arithmetic5testss_13test_subtract
FNDA:1,_RNvNtNtNtCsb6I7K8kmwIw_13calculator_rs10operations10arithmetic5testss_13test_multiply
FNDA:1,_RNvNtNtNtCsb6I7K8kmwIw_13calculator_rs10operations10arithmetic5testss_11test_divide
FNDA:3,_RNvXNtNtCsgjQSL0KFMYq_13calculator_rs10operations10arithmeticNtB2_3AddNtB4_9Operation7execute
FNDA:1,_RNvXs_NtNtCsgjQSL0KFMYq_13calculator_rs10operations10arithmeticNtB4_8SubtractNtB6_9Operation7execute
FNDA:3,_RNvXs0_NtNtCsgjQSL0KFMYq_13calculator_rs10operations10arithmeticNtB5_8MultiplyNtB7_9Operation7execute
FNDA:2,_RNvXs1_NtNtCsgjQSL0KFMYq_13calculator_rs10operations10arithmeticNtB5_6DivideNtB7_9Operation7execute
FNF:8
FNH:8
DA:23,9
DA:24,9
DA:25,9
DA:48,7
DA:49,7
DA:50,7
DA:73,9
DA:74,9
DA:75,9
DA:100,10
DA:101,10
DA:102,3
DA:104,7
DA:106,10
DA:114,2
DA:115,2
DA:116,2
DA:117,2
DA:118,2
DA:119,2
DA:122,2
DA:123,2
DA:124,2
DA:125,2
DA:126,2
DA:127,2
DA:130,2
DA:131,2
DA:132,2
DA:133,2
DA:134,2
DA:135,2
DA:138,2
DA:139,2
DA:140,2
DA:141,2
DA:142,2
DA:143,2
DA:144,2
BRF:0
BRH:0
LF:39
LH:39
end_of_record